target datalayout = "e-m:e-p270:32:32-p271:32:32-p272:64:64-i64:64-i128:128-f80:128-n8:16:32:64-S128"
target triple = "x86_64-pc-linux-gnu"

%struct.DdManager = type { %struct.DdNode, ptr, ptr, ptr, ptr, ptr, ptr, ptr, i32, i32, double, double, double, i32, i32, i32, i32, i32, i32, ptr, ptr, %struct.DdSubtable, i32, i32, i32, i32, i32, i32, i32, double, i32, i32, i32, ptr, i64, double, i32, ptr, ptr, ptr, ptr, ptr, ptr, ptr, i32, ptr, ptr, ptr, ptr, ptr, ptr, i32, i32, i32, double, i32, i32, i32, i32, double, double, i32, i32, i32, i32, i32, i32, i32, i32, i32, ptr, ptr, i32, i32, i32, i32, i32, i32, ptr, ptr, ptr, ptr, ptr, ptr, ptr, ptr, i32, i64, i64, i64, i32, i64, i64, double, double, double, double, double, double, i32, ptr, ptr, i64 }
%struct.DdNode = type { i32, i32, ptr, %union.anon, i64 }
%union.anon = type { %struct.DdChildren }
%struct.DdChildren = type { ptr, ptr }
%struct.DdSubtable = type { ptr, i32, i32, i32, i32, i32, i32, i32, i32, i32, i32, i32 }
%struct.DdHashTable = type { i32, i32, ptr, ptr, ptr, i32, i32, i32, i32, ptr }

; Function Attrs: nounwind uwtable
define internal i32 @cuddMinHammingDistRecur(ptr noundef %0, ptr noundef %1, ptr noundef %2, i32 noundef %3) #0 {
  %5 = alloca i32, align 4
  %6 = alloca ptr, align 8
  %7 = alloca ptr, align 8
  %8 = alloca ptr, align 8
  %9 = alloca i32, align 4
  %10 = alloca ptr, align 8
  %11 = alloca ptr, align 8
  %12 = alloca ptr, align 8
  %13 = alloca double, align 8
  %14 = alloca double, align 8
  %15 = alloca double, align 8
  %16 = alloca ptr, align 8
  %17 = alloca ptr, align 8
  %18 = alloca ptr, align 8
  %19 = alloca ptr, align 8
  %20 = alloca i64, align 8
  store ptr %0, ptr %6, align 8
  store ptr %1, ptr %7, align 8
  store ptr %2, ptr %8, align 8
  store i32 %3, ptr %9, align 4
  %21 = load ptr, ptr %8, align 8
  %22 = getelementptr inbounds %struct.DdHashTable, ptr %21, i32 0, i32 9
  %23 = load ptr, ptr %22, align 8
  store ptr %23, ptr %18, align 8
  %24 = load i32, ptr %9, align 4
  %25 = icmp eq i32 %24, 0
  br i1 %25, label %26, label %27

26:                                               ; preds = %4
  store i32 0, ptr %5, align 4
  br label %191

27:                                               ; preds = %4
  %28 = load ptr, ptr %6, align 8
  %29 = ptrtoint ptr %28 to i64
  %30 = and i64 %29, -2
  %31 = inttoptr i64 %30 to ptr
  store ptr %31, ptr %10, align 8
  %32 = load ptr, ptr %10, align 8
  %33 = getelementptr inbounds %struct.DdNode, ptr %32, i32 0, i32 0
  %34 = load i32, ptr %33, align 8
  %35 = icmp eq i32 %34, 2147483647
  br i1 %35, label %36, label %55

36:                                               ; preds = %27
  %37 = load ptr, ptr %18, align 8
  %38 = getelementptr inbounds %struct.DdManager, ptr %37, i32 0, i32 1
  %39 = load ptr, ptr %38, align 8
  %40 = ptrtoint ptr %39 to i64
  %41 = xor i64 %40, 1
  %42 = inttoptr i64 %41 to ptr
  store ptr %42, ptr %16, align 8
  %43 = load ptr, ptr %6, align 8
  %44 = load ptr, ptr %18, align 8
  %45 = getelementptr inbounds %struct.DdManager, ptr %44, i32 0, i32 5
  %46 = load ptr, ptr %45, align 8
  %47 = icmp eq ptr %43, %46
  br i1 %47, label %52, label %48

48:                                               ; preds = %36
  %49 = load ptr, ptr %6, align 8
  %50 = load ptr, ptr %16, align 8
  %51 = icmp eq ptr %49, %50
  br i1 %51, label %52, label %54

52:                                               ; preds = %48, %36
  %53 = load i32, ptr %9, align 4
  store i32 %53, ptr %5, align 4
  br label %191

54:                                               ; preds = %48
  store i32 0, ptr %5, align 4
  br label %191

55:                                               ; preds = %27
  %56 = load ptr, ptr %8, align 8
  %57 = load ptr, ptr %6, align 8
  %58 = call ptr @cuddHashTableLookup1(ptr noundef %56, ptr noundef %57)
  store ptr %58, ptr %17, align 8
  %59 = icmp ne ptr %58, null
  br i1 %59, label %60, label %81

60:                                               ; preds = %55
  %61 = load ptr, ptr %17, align 8
  %62 = getelementptr inbounds %struct.DdNode, ptr %61, i32 0, i32 3
  %63 = load double, ptr %62, align 8
  store double %63, ptr %13, align 8
  %64 = load ptr, ptr %17, align 8
  %65 = getelementptr inbounds %struct.DdNode, ptr %64, i32 0, i32 1
  %66 = load i32, ptr %65, align 4
  %67 = icmp eq i32 %66, 0
  br i1 %67, label %68, label %78

68:                                               ; preds = %60
  %69 = load ptr, ptr %18, align 8
  %70 = getelementptr inbounds %struct.DdManager, ptr %69, i32 0, i32 25
  %71 = load i32, ptr %70, align 4
  %72 = add i32 %71, 1
  store i32 %72, ptr %70, align 4
  %73 = load ptr, ptr %18, align 8
  %74 = getelementptr inbounds %struct.DdManager, ptr %73, i32 0, i32 21
  %75 = getelementptr inbounds %struct.DdSubtable, ptr %74, i32 0, i32 5
  %76 = load i32, ptr %75, align 8
  %77 = add i32 %76, 1
  store i32 %77, ptr %75, align 8
  br label %78

78:                                               ; preds = %68, %60
  %79 = load double, ptr %13, align 8
  %80 = fptosi double %79 to i32
  store i32 %80, ptr %5, align 4
  br label %191

81:                                               ; preds = %55
  %82 = load ptr, ptr %10, align 8
  %83 = getelementptr inbounds %struct.DdNode, ptr %82, i32 0, i32 3
  %84 = getelementptr inbounds %struct.DdChildren, ptr %83, i32 0, i32 0
  %85 = load ptr, ptr %84, align 8
  store ptr %85, ptr %11, align 8
  %86 = load ptr, ptr %10, align 8
  %87 = getelementptr inbounds %struct.DdNode, ptr %86, i32 0, i32 3
  %88 = getelementptr inbounds %struct.DdChildren, ptr %87, i32 0, i32 1
  %89 = load ptr, ptr %88, align 8
  store ptr %89, ptr %12, align 8
  %90 = load ptr, ptr %6, align 8
  %91 = ptrtoint ptr %90 to i64
  %92 = and i64 %91, 1
  %93 = trunc i64 %92 to i32
  %94 = icmp ne i32 %93, 0
  br i1 %94, label %95, label %104

95:                                               ; preds = %81
  %96 = load ptr, ptr %11, align 8
  %97 = ptrtoint ptr %96 to i64
  %98 = xor i64 %97, 1
  %99 = inttoptr i64 %98 to ptr
  store ptr %99, ptr %11, align 8
  %100 = load ptr, ptr %12, align 8
  %101 = ptrtoint ptr %100 to i64
  %102 = xor i64 %101, 1
  %103 = inttoptr i64 %102 to ptr
  store ptr %103, ptr %12, align 8
  br label %104

104:                                              ; preds = %95, %81
  %105 = load ptr, ptr %7, align 8
  %106 = load ptr, ptr %10, align 8
  %107 = getelementptr inbounds %struct.DdNode, ptr %106, i32 0, i32 0
  %108 = load i32, ptr %107, align 8
  %109 = zext i32 %108 to i64
  %110 = getelementptr inbounds i32, ptr %105, i64 %109
  %111 = load i32, ptr %110, align 4
  %112 = icmp eq i32 %111, 0
  br i1 %112, label %113, label %117

113:                                              ; preds = %104
  %114 = load ptr, ptr %11, align 8
  store ptr %114, ptr %19, align 8
  %115 = load ptr, ptr %12, align 8
  store ptr %115, ptr %11, align 8
  %116 = load ptr, ptr %19, align 8
  store ptr %116, ptr %12, align 8
  br label %117

117:                                              ; preds = %113, %104
  %118 = load ptr, ptr %11, align 8
  %119 = load ptr, ptr %7, align 8
  %120 = load ptr, ptr %8, align 8
  %121 = load i32, ptr %9, align 4
  %122 = call i32 @cuddMinHammingDistRecur(ptr noundef %118, ptr noundef %119, ptr noundef %120, i32 noundef %121)
  %123 = sitofp i32 %122 to double
  store double %123, ptr %14, align 8
  %124 = load double, ptr %14, align 8
  %125 = fcmp oeq double %124, -1.000000e+00
  br i1 %125, label %126, label %127

126:                                              ; preds = %117
  store i32 -1, ptr %5, align 4
  br label %191

127:                                              ; preds = %117
  %128 = load double, ptr %14, align 8
  %129 = fcmp oeq double %128, 0.000000e+00
  br i1 %129, label %130, label %133

130:                                              ; preds = %127
  %131 = load i32, ptr %9, align 4
  %132 = sitofp i32 %131 to double
  store double %132, ptr %15, align 8
  br label %145

133:                                              ; preds = %127
  %134 = load ptr, ptr %12, align 8
  %135 = load ptr, ptr %7, align 8
  %136 = load ptr, ptr %8, align 8
  %137 = load i32, ptr %9, align 4
  %138 = sub nsw i32 %137, 1
  %139 = call i32 @cuddMinHammingDistRecur(ptr noundef %134, ptr noundef %135, ptr noundef %136, i32 noundef %138)
  %140 = sitofp i32 %139 to double
  store double %140, ptr %15, align 8
  %141 = load double, ptr %15, align 8
  %142 = fcmp oeq double %141, -1.000000e+00
  br i1 %142, label %143, label %144

143:                                              ; preds = %133
  store i32 -1, ptr %5, align 4
  br label %191

144:                                              ; preds = %133
  br label %145

145:                                              ; preds = %144, %130
  %146 = load double, ptr %15, align 8
  %147 = fadd double %146, 1.000000e+00
  %148 = load double, ptr %14, align 8
  %149 = fcmp olt double %147, %148
  br i1 %149, label %150, label %153

150:                                              ; preds = %145
  %151 = load double, ptr %15, align 8
  %152 = fadd double %151, 1.000000e+00
  br label %155

153:                                              ; preds = %145
  %154 = load double, ptr %14, align 8
  br label %155

155:                                              ; preds = %153, %150
  %156 = phi double [ %152, %150 ], [ %154, %153 ]
  store double %156, ptr %13, align 8
  %157 = load ptr, ptr %10, align 8
  %158 = getelementptr inbounds %struct.DdNode, ptr %157, i32 0, i32 1
  %159 = load i32, ptr %158, align 4
  %160 = icmp ne i32 %159, 1
  br i1 %160, label %161, label %188

161:                                              ; preds = %155
  %162 = load ptr, ptr %10, align 8
  %163 = getelementptr inbounds %struct.DdNode, ptr %162, i32 0, i32 1
  %164 = load i32, ptr %163, align 4
  %165 = zext i32 %164 to i64
  store i64 %165, ptr %20, align 8
  %166 = load i64, ptr %20, align 8
  %167 = add nsw i64 %166, -1
  store i64 %167, ptr %20, align 8
  %168 = load ptr, ptr %18, align 8
  %169 = load double, ptr %13, align 8
  %170 = call ptr @cuddUniqueConst(ptr noundef %168, double noundef %169)
  store ptr %170, ptr %17, align 8
  %171 = load ptr, ptr %8, align 8
  %172 = load ptr, ptr %6, align 8
  %173 = load ptr, ptr %17, align 8
  %174 = load i64, ptr %20, align 8
  %175 = call i32 @cuddHashTableInsert1(ptr noundef %171, ptr noundef %172, ptr noundef %173, i64 noundef %174)
  %176 = icmp ne i32 %175, 0
  br i1 %176, label %187, label %177

177:                                              ; preds = %161
  %178 = load ptr, ptr %17, align 8
  %179 = ptrtoint ptr %178 to i64
  %180 = and i64 %179, -2
  %181 = inttoptr i64 %180 to ptr
  %182 = getelementptr inbounds %struct.DdNode, ptr %181, i32 0, i32 1
  %183 = load i32, ptr %182, align 4
  %184 = add i32 %183, 1
  store i32 %184, ptr %182, align 4
  %185 = load ptr, ptr %18, align 8
  %186 = load ptr, ptr %17, align 8
  call void @Cudd_RecursiveDeref(ptr noundef %185, ptr noundef %186)
  store i32 -1, ptr %5, align 4
  br label %191

187:                                              ; preds = %161
  br label %188

188:                                              ; preds = %187, %155
  %189 = load double, ptr %13, align 8
  %190 = fptosi double %189 to i32
  store i32 %190, ptr %5, align 4
  br label %191

191:                                              ; preds = %188, %177, %143, %126, %78, %54, %52, %26
  %192 = load i32, ptr %5, align 4
  ret i32 %192
}