; Function Attrs: nounwind uwtable
define internal fastcc i32 @cuddMinHammingDistRecur(ptr noundef %0, ptr noundef %1, ptr noundef nonnull %2, i32 noundef %3) unnamed_addr #0 {
  %5 = getelementptr inbounds nuw i8, ptr %2, i64 48
  %6 = load ptr, ptr %5, align 8
  %7 = icmp eq i32 %3, 0
  br i1 %7, label %85, label %8

8:                                                ; preds = %4
  %9 = ptrtoint ptr %0 to i64
  %10 = and i64 %9, -2
  %11 = inttoptr i64 %10 to ptr
  %12 = load i32, ptr %11, align 8
  %13 = icmp eq i32 %12, 2147483647
  br i1 %13, label %14, label %25

14:                                               ; preds = %8
  %15 = getelementptr inbounds nuw i8, ptr %6, i64 72
  %16 = load ptr, ptr %15, align 8
  %17 = icmp eq ptr %0, %16
  br i1 %17, label %85, label %18

18:                                               ; preds = %14
  %19 = getelementptr inbounds nuw i8, ptr %6, i64 40
  %20 = load ptr, ptr %19, align 8
  %21 = ptrtoint ptr %20 to i64
  %22 = xor i64 %21, 1
  %23 = inttoptr i64 %22 to ptr
  %24 = icmp eq ptr %0, %23
  %spec.select = select i1 %24, i32 %3, i32 0
  br label %85

25:                                               ; preds = %8
  %26 = tail call ptr @cuddHashTableLookup1(ptr noundef nonnull %2, ptr noundef %0) #6
  %.not = icmp eq ptr %26, null
  br i1 %.not, label %42, label %27

27:                                               ; preds = %25
  %28 = getelementptr inbounds nuw i8, ptr %26, i64 16
  %29 = load double, ptr %28, align 8
  %30 = getelementptr inbounds nuw i8, ptr %26, i64 4
  %31 = load i32, ptr %30, align 4
  %32 = icmp eq i32 %31, 0
  br i1 %32, label %33, label %40

33:                                               ; preds = %27
  %34 = getelementptr inbounds nuw i8, ptr %6, i64 236
  %35 = load i32, ptr %34, align 4
  %36 = add i32 %35, 1
  store i32 %36, ptr %34, align 4
  %37 = getelementptr inbounds nuw i8, ptr %6, i64 192
  %38 = load i32, ptr %37, align 8
  %39 = add i32 %38, 1
  store i32 %39, ptr %37, align 8
  br label %40

40:                                               ; preds = %33, %27
  %41 = fptosi double %29 to i32
  br label %85

42:                                               ; preds = %25
  %43 = getelementptr inbounds nuw i8, ptr %11, i64 16
  %44 = load ptr, ptr %43, align 8
  %45 = getelementptr inbounds nuw i8, ptr %11, i64 24
  %46 = load ptr, ptr %45, align 8
  %47 = and i64 %9, 1
  %.not66 = icmp eq i64 %47, 0
  %48 = ptrtoint ptr %44 to i64
  %49 = xor i64 %48, 1
  %50 = inttoptr i64 %49 to ptr
  %51 = ptrtoint ptr %46 to i64
  %52 = xor i64 %51, 1
  %53 = inttoptr i64 %52 to ptr
  %.057 = select i1 %.not66, ptr %46, ptr %53
  %.056 = select i1 %.not66, ptr %44, ptr %50
  %54 = load i32, ptr %11, align 8
  %55 = zext i32 %54 to i64
  %56 = getelementptr inbounds nuw i32, ptr %1, i64 %55
  %57 = load i32, ptr %56, align 4
  %58 = icmp eq i32 %57, 0
  %.1 = select i1 %58, ptr %.057, ptr %.056
  %59 = tail call fastcc i32 @cuddMinHammingDistRecur(ptr noundef %.1, ptr noundef %1, ptr noundef %2, i32 noundef %3)
  %60 = sitofp i32 %59 to double
  switch i32 %59, label %61 [
    i32 -1, label %85
    i32 0, label %65
  ]

61:                                               ; preds = %42
  %.158 = select i1 %58, ptr %.056, ptr %.057
  %62 = add nsw i32 %3, -1
  %63 = tail call fastcc i32 @cuddMinHammingDistRecur(ptr noundef %.158, ptr noundef nonnull %1, ptr noundef %2, i32 noundef %62)
  %64 = icmp eq i32 %63, -1
  br i1 %64, label %85, label %65

65:                                               ; preds = %42, %61
  %.059.in = phi i32 [ %63, %61 ], [ %3, %42 ]
  %.059 = sitofp i32 %.059.in to double
  %66 = fadd double %.059, 1.000000e+00
  %67 = fcmp olt double %66, %60
  %68 = select i1 %67, double %66, double %60
  %69 = getelementptr inbounds nuw i8, ptr %11, i64 4
  %70 = load i32, ptr %69, align 4
  %.not67 = icmp eq i32 %70, 1
  br i1 %.not67, label %83, label %71

71:                                               ; preds = %65
  %72 = zext i32 %70 to i64
  %73 = add nsw i64 %72, -1
  %74 = tail call ptr @cuddUniqueConst(ptr noundef %6, double noundef %68) #6
  %75 = tail call i32 @cuddHashTableInsert1(ptr noundef nonnull %2, ptr noundef %0, ptr noundef %74, i64 noundef %73) #6
  %.not68 = icmp eq i32 %75, 0
  br i1 %.not68, label %76, label %83

76:                                               ; preds = %71
  %77 = ptrtoint ptr %74 to i64
  %78 = and i64 %77, -2
  %79 = inttoptr i64 %78 to ptr
  %80 = getelementptr inbounds nuw i8, ptr %79, i64 4
  %81 = load i32, ptr %80, align 4
  %82 = add i32 %81, 1
  store i32 %82, ptr %80, align 4
  tail call void @Cudd_RecursiveDeref(ptr noundef %6, ptr noundef %74) #6
  br label %85

83:                                               ; preds = %71, %65
  %84 = fptosi double %68 to i32
  br label %85

85:                                               ; preds = %18, %61, %42, %14, %4, %83, %76, %40
  %.0 = phi i32 [ %41, %40 ], [ %84, %83 ], [ -1, %76 ], [ 0, %4 ], [ %3, %14 ], [ %59, %42 ], [ -1, %61 ], [ %spec.select, %18 ]
  ret i32 %.0
}